; Function Attrs: nounwind uwtable
define ptr @l___private_Lean_Meta_Tactic_Simp_SimpTheorems_0__Lean_Meta_eraseFwdIfBwd(ptr noundef %0, ptr noundef %1) local_unnamed_addr #1 {
  %3 = getelementptr inbounds nuw i8, ptr %1, i64 40
  %4 = load ptr, ptr %3, align 8, !tbaa !9
  %5 = ptrtoint ptr %4 to i64
  %6 = and i64 %5, 1
  %.not = icmp eq i64 %6, 0
  br i1 %.not, label %7, label %lean_inc.exit13

7:                                                ; preds = %2
  %.val.i = load i32, ptr %4, align 4, !tbaa !4
  %8 = icmp sgt i32 %.val.i, 0
  br i1 %8, label %9, label %11, !prof !11

9:                                                ; preds = %7
  %10 = add nuw i32 %.val.i, 1
  store i32 %10, ptr %4, align 4, !tbaa !4
  br label %lean_inc.exit13

11:                                               ; preds = %7
  %.not.i17 = icmp eq i32 %.val.i, 0
  br i1 %.not.i17, label %lean_inc.exit13, label %12

12:                                               ; preds = %11
  tail call void @lean_inc_ref_cold(ptr noundef nonnull %4) #6
  br label %lean_inc.exit13

lean_inc.exit13:                                  ; preds = %12, %11, %9, %2
  %13 = ptrtoint ptr %1 to i64
  %14 = and i64 %13, 1
  %.not25 = icmp eq i64 %14, 0
  br i1 %.not25, label %15, label %lean_dec.exit14

15:                                               ; preds = %lean_inc.exit13
  %16 = load i32, ptr %1, align 4, !tbaa !4
  %17 = icmp sgt i32 %16, 1
  br i1 %17, label %18, label %20, !prof !11

18:                                               ; preds = %15
  %19 = add nsw i32 %16, -1
  store i32 %19, ptr %1, align 4, !tbaa !4
  br label %lean_dec.exit14

20:                                               ; preds = %15
  %.not.i = icmp eq i32 %16, 0
  br i1 %.not.i, label %lean_dec.exit14, label %21

21:                                               ; preds = %20
  tail call void @lean_dec_ref_cold(ptr noundef nonnull %1) #6
  br label %lean_dec.exit14

lean_dec.exit14:                                  ; preds = %21, %20, %18, %lean_inc.exit13
  %22 = tail call ptr @l_Lean_Meta_Origin_converse(ptr noundef %4)
  %23 = ptrtoint ptr %22 to i64
  %24 = and i64 %23, 1
  %.not.i18 = icmp eq i64 %24, 0
  br i1 %.not.i18, label %28, label %25

25:                                               ; preds = %lean_dec.exit14
  %26 = lshr i64 %23, 1
  %27 = trunc i64 %26 to i32
  br label %lean_obj_tag.exit

28:                                               ; preds = %lean_dec.exit14
  %29 = getelementptr i8, ptr %22, i64 4
  %.val.i19 = load i32, ptr %29, align 4
  %30 = lshr i32 %.val.i19, 24
  br label %lean_obj_tag.exit

lean_obj_tag.exit:                                ; preds = %25, %28
  %.0.i = phi i32 [ %27, %25 ], [ %30, %28 ]
  %31 = icmp eq i32 %.0.i, 0
  br i1 %31, label %l___private_Lean_Meta_Tactic_Simp_SimpTheorems_0__Lean_Meta_eraseIfExists.exit, label %32

32:                                               ; preds = %lean_obj_tag.exit
  %33 = getelementptr inbounds nuw i8, ptr %22, i64 8
  %34 = load ptr, ptr %33, align 8, !tbaa !9
  %35 = ptrtoint ptr %34 to i64
  %36 = and i64 %35, 1
  %.not26 = icmp eq i64 %36, 0
  br i1 %.not26, label %37, label %lean_inc.exit

37:                                               ; preds = %32
  %.val.i20 = load i32, ptr %34, align 4, !tbaa !4
  %38 = icmp sgt i32 %.val.i20, 0
  br i1 %38, label %39, label %41, !prof !11

39:                                               ; preds = %37
  %40 = add nuw i32 %.val.i20, 1
  store i32 %40, ptr %34, align 4, !tbaa !4
  br label %lean_inc.exit

41:                                               ; preds = %37
  %.not.i21 = icmp eq i32 %.val.i20, 0
  br i1 %.not.i21, label %lean_inc.exit, label %42

42:                                               ; preds = %41
  tail call void @lean_inc_ref_cold(ptr noundef nonnull %34) #6
  br label %lean_inc.exit

lean_inc.exit:                                    ; preds = %42, %41, %39, %32
  br i1 %.not.i18, label %43, label %lean_dec.exit

43:                                               ; preds = %lean_inc.exit
  %44 = load i32, ptr %22, align 4, !tbaa !4
  %45 = icmp sgt i32 %44, 1
  br i1 %45, label %46, label %48, !prof !11

46:                                               ; preds = %43
  %47 = add nsw i32 %44, -1
  store i32 %47, ptr %22, align 4, !tbaa !4
  br label %lean_dec.exit

48:                                               ; preds = %43
  %.not.i15 = icmp eq i32 %44, 0
  br i1 %.not.i15, label %lean_dec.exit, label %49

49:                                               ; preds = %48
  tail call void @lean_dec_ref_cold(ptr noundef nonnull %22) #6
  br label %lean_dec.exit

lean_dec.exit:                                    ; preds = %49, %48, %46, %lean_inc.exit
  %50 = getelementptr inbounds nuw i8, ptr %0, i64 24
  %51 = load ptr, ptr %50, align 8, !tbaa !9
  %52 = ptrtoint ptr %51 to i64
  %53 = and i64 %52, 1
  %.not.i23 = icmp eq i64 %53, 0
  br i1 %.not.i23, label %54, label %lean_inc.exit.i

54:                                               ; preds = %lean_dec.exit
  %.val.i.i = load i32, ptr %51, align 4, !tbaa !4
  %55 = icmp sgt i32 %.val.i.i, 0
  br i1 %55, label %56, label %58, !prof !11

56:                                               ; preds = %54
  %57 = add nuw i32 %.val.i.i, 1
  store i32 %57, ptr %51, align 4, !tbaa !4
  br label %lean_inc.exit.i

58:                                               ; preds = %54
  %.not.i10.i = icmp eq i32 %.val.i.i, 0
  br i1 %.not.i10.i, label %lean_inc.exit.i, label %59

59:                                               ; preds = %58
  tail call void @lean_inc_ref_cold(ptr noundef nonnull %51) #6
  br label %lean_inc.exit.i

lean_inc.exit.i:                                  ; preds = %59, %58, %56, %lean_dec.exit
  %60 = tail call zeroext i8 @l_Lean_PersistentHashMap_contains___at___private_Lean_Meta_Tactic_Simp_SimpTheorems_0__Lean_Meta_eraseIfExists___spec__1(ptr noundef %51, ptr noundef %34)
  %61 = icmp eq i8 %60, 0
  br i1 %61, label %62, label %70

62:                                               ; preds = %lean_inc.exit.i
  br i1 %.not26, label %63, label %l___private_Lean_Meta_Tactic_Simp_SimpTheorems_0__Lean_Meta_eraseIfExists.exit

63:                                               ; preds = %62
  %64 = load i32, ptr %34, align 4, !tbaa !4
  %65 = icmp sgt i32 %64, 1
  br i1 %65, label %66, label %68, !prof !11

66:                                               ; preds = %63
  %67 = add nsw i32 %64, -1
  store i32 %67, ptr %34, align 4, !tbaa !4
  br label %l___private_Lean_Meta_Tactic_Simp_SimpTheorems_0__Lean_Meta_eraseIfExists.exit

68:                                               ; preds = %63
  %.not.i.i = icmp eq i32 %64, 0
  br i1 %.not.i.i, label %l___private_Lean_Meta_Tactic_Simp_SimpTheorems_0__Lean_Meta_eraseIfExists.exit, label %69

69:                                               ; preds = %68
  tail call void @lean_dec_ref_cold(ptr noundef nonnull %34) #6
  br label %l___private_Lean_Meta_Tactic_Simp_SimpTheorems_0__Lean_Meta_eraseIfExists.exit

70:                                               ; preds = %lean_inc.exit.i
  %71 = tail call ptr @l_Lean_Meta_SimpTheorems_eraseCore(ptr noundef nonnull %0, ptr noundef %34)
  br label %l___private_Lean_Meta_Tactic_Simp_SimpTheorems_0__Lean_Meta_eraseIfExists.exit

l___private_Lean_Meta_Tactic_Simp_SimpTheorems_0__Lean_Meta_eraseIfExists.exit: ; preds = %70, %69, %68, %66, %62, %lean_obj_tag.exit
  %.0 = phi ptr [ %0, %lean_obj_tag.exit ], [ %71, %70 ], [ %0, %69 ], [ %0, %68 ], [ %0, %66 ], [ %0, %62 ]
  ret ptr %.0
}